; Function Attrs: mustprogress nofree norecurse nosync nounwind willreturn memory(argmem: readwrite) uwtable
define void @_ZNK5arrow14BasicDecimal3219GetWholeAndFractionEiPS0_S1_(ptr noundef nonnull readonly align 4 captures(none) dereferenceable(4) %0, i32 noundef %1, ptr noundef writeonly captures(none) %2, ptr noundef writeonly captures(address_is_null) %3) local_unnamed_addr #5 align 2 {
  %5 = sext i32 %1 to i64
  %6 = getelementptr inbounds %"class.arrow::BasicDecimal32", ptr @_ZN5arrowL21kDecimal32PowersOfTenE, i64 %5
  %7 = load i32, ptr %6, align 4
  %8 = icmp eq i32 %7, 0
  br i1 %8, label %_ZNK5arrow14BasicDecimal326DivideERKS0_PS0_S3_.exit, label %9

9:                                                ; preds = %4
  %10 = load i32, ptr %0, align 4, !tbaa !10
  %11 = sdiv i32 %10, %7
  store i32 %11, ptr %2, align 4
  %.not.i = icmp eq ptr %3, null
  br i1 %.not.i, label %_ZNK5arrow14BasicDecimal326DivideERKS0_PS0_S3_.exit, label %12

12:                                               ; preds = %9
  %13 = load i32, ptr %0, align 4, !tbaa !10
  %14 = srem i32 %13, %7
  store i32 %14, ptr %3, align 4
  br label %_ZNK5arrow14BasicDecimal326DivideERKS0_PS0_S3_.exit

_ZNK5arrow14BasicDecimal326DivideERKS0_PS0_S3_.exit: ; preds = %4, %9, %12
  ret void
}